; Function Attrs: mustprogress nofree norecurse nosync nounwind willreturn memory(read, inaccessiblemem: none) uwtable
define noundef zeroext i8 @_ZNK3vcg3tri2io10BreElement3RedEv(ptr nocapture noundef nonnull readonly align 8 dereferenceable(8) %0) local_unnamed_addr #14 align 2 {
  %2 = load ptr, ptr %0, align 8
  %3 = getelementptr inbounds i8, ptr %2, i64 16
  %4 = load i64, ptr %3, align 8
  %5 = getelementptr inbounds i8, ptr %2, i64 %4
  %6 = getelementptr inbounds i8, ptr %5, i64 18
  %7 = load i16, ptr %6, align 2
  %8 = lshr i16 %7, 7
  %9 = trunc i16 %8 to i8
  %10 = and i8 %9, -8
  ret i8 %10
}